LIBRARY "dmcr.exe"
EXPORTS
AI_Torg
AddResource
AllowAttack
AskComplexQuestion
AskMultilineQuestion
AskQuestion
AssignAmountOfMineUpgrades
AssignFormUnit
AssignHouse
AssignMine
AssignMineUpgrade
AssignNation
AssignPeasant
AssignWall
AttackBuildingsInZone
AttackEnemyInZone
AttackZoneByArtillery
BigBlackFont
BigRedFont
BigWhiteFont
BigYellowFont
BlackFont
BuildVersion
BytesPerPixel
COPYSizeX
ChangeFriends
ChangeUnitParam
CheckBuildingsComplete
CheckLeaveAbility
CheckProduction
ClearLightSpot
ClearSelection
CreateBuilding
CreateObject0
CreateZoneNearGroup
CreateZoneNearUnit
CurPalette
DisableMission
DisableUpgrade
DoMessagesBrief
DoNotUseSelInAI
EnableMission
EnableUnit
EnableUpgrade
FieldExist
FreeTimer
GPS
GetAINation
GetAIRegister
GetAmountOfWarriors
GetDied
GetDiff
GetDifficulty
GetExtraction
GetGlobalTime
GetKilled
GetLandType
GetMaxInside
GetMaxPeaceTime
GetMaxPeasantsInMines
GetMoney
GetMyNation
GetNInside
GetNUnits
GetPeaceTimeLeft
GetQuestPressed
GetRandomIndex
GetReadyAmount
GetReadyUnits
GetResOnMap
GetResource
GetStartRes
GetTime
GetTopDst
GetTorgResult
GetTotalAmount0
GetTotalAmount1
GetTotalAmount2
GetUnitCost
GetUnitExCaps
GetUnitInfo
GetUnits
GetUnitsAmount0
GetUnitsAmount1
GetUnitsAmount2
GetUnitsByNation
GetUnitsByUsage
GetUpgradeCost
GetZoneCoor
HINT
InitialUpgrade
InsertUnitToGroup
IsUpgradeDoing
IsUpgradeDone
IsUpgradeEnabled
ItemChoose
KeyPressed
LASTCLICKCHATNAME
LastKey
LobbyVersion
LooseGame
MissErrorMessage
ModeLX
ModeLY
NModes
NationIsErased
PastePiece
Patrol
Pitch
ProduceOneUnit
ProduceUnit
ProduceUnitFast
PushAllUnitsAway
PushUnitAway
RSCRSizeX
RSCRSizeY
RealLx
RealLy
RealScreenPtr
RedFont
RefreshScreen
RegisterDynGroup
RegisterFormation
RegisterSound
RegisterString
RegisterUnitType
RegisterUnits
RegisterUnitsForm
RegisterUpgrade
RegisterVar
RegisterVisibleZone
RegisterZone
RemoveGroup
RemoveUnitFromGroup
RepairBuildingsBySel
RunAI
RunAIWithPeasants
RunMapeditor
RunTimer
RunUserMission
SCRSizeX
SCRSizeY
SET_DEFAULT_MAX_WORKERS
SET_MINE_CAPTURE_RADIUS
SET_MINE_UPGRADE1_RADIUS
SET_MINE_UPGRADE2_RADIUS
SET_MIN_PEASANT_BRIGADE
SafeRegisterUpgrade
SaveSelectedUnits
ScrHeight
ScrWidth
ScreenPtr
SelAttackGroup
SelAutoKill
SelCenter
SelChangeNation
SelCloseGates
SelDie
SelErase
SelOpenGates
SelSendAndKill
SelSendTo
SelectBuildingsInZone
SelectTypeOfUnitsInZone
SelectUnits
SelectUnits1
SelectUnitsInZone
SelectUnitsType
SendUnitsToTransport
SetAIProperty
SetAIRegister
SetDefSettings
SetDefenseState
SetDestPoint
SetLightSpot
SetLooseText
SetMineBalanse
SetMinesBuildingRules
SetMinesUpgradeRules
SetPDistribution
SetPlayerName
SetReadyState
SetResource
SetStandGround
SetStandartVictory
SetStartPoint
SetTrigg
SetTutorial
SetUnitInfo
SetUpgradeLock
SetVictoryText
SetWTrigg
ShowAlarm
ShowCentralText
ShowPage
ShowPageParam
ShowVictory
SmallBlackFont
SmallBlackFont1
SmallRedFont
SmallRedFont1
SmallWhiteFont
SmallWhiteFont1
SmallYellowFont
SmallYellowFont1
SpecialBlackFont
SpecialRedFont
SpecialWhiteFont
SpecialYellowFont
StartAI
TakeFood
TakeStone
TakeWood
TimerDone
TimerDoneFirst
TimerIsEmpty
Trigg
TryUnit
TryUpgrade
UFONTS
UnitsCenter
UpgIsDone
UpgIsRun
WTrigg
WhiteFont
WindLx
WindLy
WindX
WindX1
WindY
WindY1
YellowFont
_Z10AddToGChatPcS_
_Z10ClearGChatv
_Z10DarkScreenv
_Z10PlayEffectiii
_Z10RBlockReadPvS_m
_Z10ShowStringiiPKcP7RLCFont
_Z11ClearScreenv
_Z11DrawStdBar2iiiii
_Z11FinExplorerv
_Z11GetPalColorhPhS_S_
_Z11GetTextByIDPc
_Z11PlayRecfilePc
_Z11RBlockWritePvS_m
_Z11RunExploreriPciiii
_Z11ShowRLCItemiiPP9xRLCTableih
_Z11StoreWindowv
_Z12CheckUsingAIv
_Z12ExplorerBacki
_Z12ExplorerForwi
_Z12GetRLCHeightP9xRLCTableh
_Z12LoadPalettesv
_Z12MMItemChooseP12SimpleDialog
_Z12SetRLCWindowiiiii
_Z13GetTextIDByIDPc
_Z13RestoreWindowv
_Z13StartExplorerv
_Z14CheckFontColorP7RLCFont
_Z14CheckGP_Insideiiii
_Z14ExplorerGetVariPc
_Z14ExplorerResizeiiiii
_Z14ExplorerSetVariPcS_
_Z14GetRLCStrWidthPcP7RLCFont
_Z14ShowClanStringiiPchP7RLCFontS1_i
_Z15DrawFilledRect3iiiiP7Cornersiii
_Z15ExplorerOpenRefiPc
_Z15ExplorerRefreshi
_Z15GetPaletteColoriii
_Z15ProcessExploreri
_Z15ProcessMessagesv
_Z15RegisterRLCFontP7RLCFontP9xRLCTablei
_Z15ShowCharUNICODEiiPhP7RLCFont
_Z15SlowLoadPalettePKc
_Z17LoadOptionalTableiPc
_Z17SlowUnLoadPalettePKc
_Z18GetRLCWidthUNICODEP9xRLCTablePhPi
_Z18ProcessExplorerDSSiP13DialogsSystem
_Z4CBariiiih
_Z5GopenPcS_
_Z5RSeekPvi
_Z5xLineiiiih
_Z6GcloseP5GFILE
_Z6GgetchP5GFILE
_Z6GscanfP5GFILEPcz
_Z6RClosePv
_Z6RResetPKc
_Z7EnumPlrv
_Z7GprintfP5GFILEPKcz
_Z7LoadFogi
_Z7LoadRLCPKcPP9xRLCTable
_Z7SetWindiiii
_Z7ShowRLCiiPv
_Z7StdKeysv
_Z7_ExFreePv
_Z8GetSoundPc
_Z8RRewritePKc
_Z9DrawRect3iiiiP7Cornersi
_Z9FlipPagesv
_Z9RFileSizePv
_Z9SetCurPtri
_Z9SetExCommPci
_Z9_ExMalloci
_ZN10TextViewer11GetNextLineEP8LineInfo
_ZN10TextViewer12AssignScrollEP10VScrollBar
_ZN10TextViewer15CreateLinesListEv
_ZN10TextViewer8LoadFileEPc
_ZN11WinComboBox5ClearEv
_ZN11WinComboBox7AddLineEPc
_ZN12SimpleDialog11AssignSoundEPci
_ZN12SimpleDialog11AssignSoundEii
_ZN12SimpleDialogC1Ev
_ZN12SimpleDialogC2Ev
_ZN13DialogsSystem10MarkToDrawEv
_ZN13DialogsSystem10addBPXViewEP12SimpleDialogiiiiiiiPhP10VScrollBar
_ZN13DialogsSystem10addClipperEiiii
_ZN13DialogsSystem10addListBoxEP12SimpleDialogiiiP9SQPictureP7RLCFontS5_P10VScrollBar
_ZN13DialogsSystem10addListBoxEP12SimpleDialogiiiiiP7RLCFontS3_P10VScrollBar
_ZN13DialogsSystem10addPictureEP12SimpleDialogiiP9SQPictureS3_S3_
_ZN13DialogsSystem11RefreshViewEv
_ZN13DialogsSystem11addCheckBoxEP12SimpleDialogiiPcibP9SQPictureS4_P7RLCFontS6_
_ZN13DialogsSystem11addComboBoxEP12SimpleDialogiiiiihhP7RLCFontS3_Pc
_ZN13DialogsSystem11addInputBoxEP12SimpleDialogiiPciP9SQPictureP7RLCFontS6_
_ZN13DialogsSystem11addInputBoxEP12SimpleDialogiiPciiiP7RLCFontS4_
_ZN13DialogsSystem11addInputBoxEP12SimpleDialogiiPciiiP7RLCFontS4_b
_ZN13DialogsSystem11addViewPortEiiii
_ZN13DialogsSystem12CloseDialogsEv
_ZN13DialogsSystem12addCustomBoxEiiiiPFviiiiihiE
_ZN13DialogsSystem12addGPPictureEP12SimpleDialogiiii
_ZN13DialogsSystem12addGP_ButtonEP12SimpleDialogiiiii
_ZN13DialogsSystem12addViewPort2Eiiiih
_ZN13DialogsSystem13addChatViewerEP12SimpleDialogiiiiiPPPcS4_Pi
_ZN13DialogsSystem13addColoredBarEiiiih
_ZN13DialogsSystem13addComplexBoxEiiiiPFviiiiihiEii
_ZN13DialogsSystem13addGP_ListBoxEP12SimpleDialogiiiiiiP7RLCFontS3_P10VScrollBar
_ZN13DialogsSystem13addHScrollBarEP12SimpleDialogiiiiP9SQPictureS3_S3_S3_S3_S3_S3_S3_S3_
_ZN13DialogsSystem13addRLCListBoxEP12SimpleDialogiiiiihh
_ZN13DialogsSystem13addRLCPictureEP12SimpleDialogiiPP9xRLCTablehS4_hS4_h
_ZN13DialogsSystem13addTextButtonEP12SimpleDialogiiPcP7RLCFontS4_S4_h
_ZN13DialogsSystem13addTextViewerEP12SimpleDialogiiiiPcP7RLCFont
_ZN13DialogsSystem13addVScrollBarEP12SimpleDialogiiiiP9SQPictureS3_S3_S3_S3_S3_S3_S3_S3_
_ZN13DialogsSystem14ProcessDialogsEv
_ZN13DialogsSystem14addGP_CheckBoxEP12SimpleDialogiiPcP7RLCFontS4_ibiiii
_ZN13DialogsSystem14addGP_ComboBoxEP12SimpleDialogiiiiiiP7RLCFontS3_Pc
_ZN13DialogsSystem14addPageControlEP12SimpleDialogiiii
_ZN13DialogsSystem14addVideoButtonEP12SimpleDialogiiii
_ZN13DialogsSystem14addWinComboBoxEP12SimpleDialogPciiiiiiiiP7RLCFontS4_PP11WinComboBoxii
_ZN13DialogsSystem15addCustomBorderEiiiiiPiS0_ii
_ZN13DialogsSystem15addGP_ScrollBarEP12SimpleDialogiiiiiiiii
_ZN13DialogsSystem15addTextureStripEiiiiiiiiib
_ZN13DialogsSystem16addBpxTextButtonEP12SimpleDialogiiPcP7RLCFontS4_S4_P9SQPictureS6_S6_
_ZN13DialogsSystem16addGP_ScrollBarLEP12SimpleDialogiiiiiiiiii
_ZN13DialogsSystem16addGP_TextButtonEP12SimpleDialogiiPciiP7RLCFontS4_
_ZN13DialogsSystem17addGP_ComboBoxDLXEP12SimpleDialogiiiiiiiP7RLCFontS3_Pc
_ZN13DialogsSystem18addUniversalButtonEiiiPciPiiibP7RLCFontS3_S3_
_ZN13DialogsSystem19addNewGP_VScrollBarEP12SimpleDialogiiiiiii
_ZN13DialogsSystem19addStdGP_TextButtonEiiiPciiP7RLCFontS2_
_ZN13DialogsSystem23addGP_TextButtonLimitedEP12SimpleDialogiiPciiiiP7RLCFontS4_
_ZN13DialogsSystem8SetFontsEP7RLCFontS1_S1_S1_
_ZN13DialogsSystem9AddCanvasEiiii
_ZN13DialogsSystem9addBorderEiiiiih
_ZN13DialogsSystemC1Eii
_ZN13DialogsSystemC1Ev
_ZN13DialogsSystemC2Eii
_ZN13DialogsSystemC2Ev
_ZN13DialogsSystemD1Ev
_ZN13DialogsSystemD2Ev
_ZN14GP_PageControl7AddPageEiiiii
_ZN6Canvas6AddBarEiiiih
_ZN6Canvas7AddLineEiiiih
_ZN6Canvas7AddRectEiiiih
_ZN6Canvas7AddTextEiiPcP7RLCFont
_ZN6Canvas8AddCTextEiiPcP7RLCFont
_ZN6Canvas9AddSpriteEiiii
_ZN6Canvas9CheckSizeEi
_ZN7CGSCset10gCloseFileEP8TGSCfile
_ZN7CGSCset10gFindFirstEPKc
_ZN7CGSCset10gWriteFileEP8TGSCfilePhm
_ZN7CGSCset10gWriteOpenEPKc
_ZN7CGSCset5gOpenEv
_ZN7CGSCset6gCloseEv
_ZN7CGSCset8gFilePosEP8TGSCfile
_ZN7CGSCset8gMapFileEP8TGSCfile
_ZN7CGSCset9gFileSizeEP8TGSCfile
_ZN7CGSCset9gFindNextEP12TGSCFindInfo
_ZN7CGSCset9gOpenFileEPKcb
_ZN7CGSCset9gReadFileEP8TGSCfilePhm
_ZN7CGSCset9gSeekFileEP8TGSCfilem
_ZN7CGSCsetC1Ev
_ZN7CGSCsetC2Ev
_ZN7CGSCsetD0Ev
_ZN7CGSCsetD1Ev
_ZN7CGSCsetD2Ev
_ZN7ListBox10ClearItemsEv
_ZN7ListBox11SetFirstPosEi
_ZN7ListBox13AddStaticItemEPci
_ZN7ListBox14SetCurrentItemEi
_ZN7ListBox7AddItemEPci
_ZN7ListBox7GetItemEi
_ZN7LocalGP4LoadEPc
_ZN7LocalGP6UnLoadEv
_ZN7LocalGPC1EPc
_ZN7LocalGPC1Ev
_ZN7LocalGPC2EPc
_ZN7LocalGPC2Ev
_ZN7LocalGPD1Ev
_ZN7LocalGPD2Ev
_ZN7RLCFont10SetGPIndexEi
_ZN7RLCFont11SetRedColorEv
_ZN7RLCFont13SetBlackColorEv
_ZN7RLCFont13SetColorTableEi
_ZN7RLCFont13SetWhiteColorEv
_ZN7RLCFontC1EPc
_ZN7RLCFontC1Ei
_ZN7RLCFontC1Ev
_ZN7RLCFontC2EPc
_ZN7RLCFontC2Ei
_ZN7RLCFontC2Ev
_ZN7RLCFontD1Ev
_ZN7RLCFontD2Ev
_ZN8CGSCarch10GetFilePosEP8TGSCfile
_ZN8CGSCarch10MemDecryptEPhm
_ZN8CGSCarch10SetFilePosEP8TGSCfilem
_ZN8CGSCarch11GetFileDataEP8TGSCfile
_ZN8CGSCarch11GetFileSizeEP8TGSCfile
_ZN8CGSCarch13GetFileHandleEPKc
_ZN8CGSCarch15CloseFileHandleEP8TGSCfile
_ZN8CGSCarch4OpenEPKc
_ZN8CGSCarch5CloseEv
_ZN8CGSCarch8FindFileEPKc
_ZN8CGSCarch8NextFileEP12TGSCFindData
_ZN8CGSCarch8ReadFileEP8TGSCfilePhm
_ZN8CGSCarchC1Ev
_ZN8CGSCarchC2Ev
_ZN8CGSCarchD0Ev
_ZN8CGSCarchD1Ev
_ZN8CGSCarchD2Ev
_ZN8ComboBox11CreateRulerEii
_ZN8ComboBox12AssignScrollEP13DialogsSystemPP10VScrollBariii
_ZN8ComboBox14AddComplexLineEPc
_ZN8ComboBox5ClearEv
_ZN8ComboBox7AddLineEPc
_ZN8UNIFONTS8FindFontEPc
_ZN8UNIFONTS9LoadFontsEv
_ZN8UNIFONTSC1Ev
_ZN8UNIFONTSC2Ev
_ZN8UNIFONTSD1Ev
_ZN8UNIFONTSD2Ev
_ZN9GP_Header5GetDxEv
_ZN9GP_Header5GetDyEv
_ZN9GP_Header5GetLxEv
_ZN9GP_Header5GetLyEv
_ZN9GP_System10GetGPShiftEii
_ZN9GP_System10GetGPWidthEii
_ZN9GP_System10SetRedFontEi
_ZN9GP_System10ShowGPDarkEiiiih
_ZN9GP_System10ShowGPGradEiiiihPh
_ZN9GP_System10ShowGPRedNEiiiihi
_ZN9GP_System11GetGPHeightEii
_ZN9GP_System11ShowGPDarkNEiiiihi
_ZN9GP_System11ShowGPFiredEiiiih
_ZN9GP_System11ShowGPMutnoEiiiih
_ZN9GP_System12SetBlackFontEi
_ZN9GP_System12SetWhiteFontEi
_ZN9GP_System12ShowGPLayersEiiiihi
_ZN9GP_System14PreLoadGPImageEPc
_ZN9GP_System14PreLoadGPImageEPcb
_ZN9GP_System15ShowGPPalLayersEiiiihPhi
_ZN9GP_System16SetOptionalColorEii
_ZN9GP_System17ShowGPTransparentEiiiih
_ZN9GP_System23ShowGPTransparentLayersEiiiihi
_ZN9GP_System6LoadGPEi
_ZN9GP_System6ShowGPEiiiih
_ZN9GP_System7GetCashEi
_ZN9GP_System8FreeRefsEi
_ZN9GP_System8UnLoadGPEi
_ZN9GP_System9GetGPSizeEiiPiS0_
_ZN9GP_System9ShowGPPalEiiiihPh
_ZN9GP_SystemC1Ev
_ZN9GP_SystemC2Ev
_ZN9GP_SystemD1Ev
_ZN9GP_SystemD2Ev
_ZN9SQPicture11LoadPictureEPc
_ZN9SQPicture15DrawTransparentEii
_ZN9SQPicture4DrawEii
_ZN9SQPictureC1EPc
_ZN9SQPictureC1Ev
_ZN9SQPictureC2EPc
_ZN9SQPictureC2Ev
_ZN9SQPictureD1Ev
_ZN9SQPictureD2Ev
_ZTI7CGSCset
_ZTI8CGSCarch
_ZTV7CGSCset
_ZTV8CGSCarch
dwVersion
fn10
fn8
menu_x_off
menu_y_off
